; Function Attrs: nounwind uwtable
define ptr @l_Lean_Expr_toHeadIndex(ptr noundef %0) local_unnamed_addr #0 {
  %2 = tail call ptr @l___private_Lean_HeadIndex_0__Lean_Expr_toHeadIndexQuick_x3f(ptr noundef %0)
  %3 = ptrtoint ptr %2 to i64
  %4 = and i64 %3, 1
  %.not.i13 = icmp eq i64 %4, 0
  br i1 %.not.i13, label %8, label %5

5:                                                ; preds = %1
  %6 = lshr i64 %3, 1
  %7 = trunc i64 %6 to i32
  br label %lean_obj_tag.exit

8:                                                ; preds = %1
  %9 = getelementptr i8, ptr %2, i64 4
  %.val.i = load i32, ptr %9, align 4
  %10 = lshr i32 %.val.i, 24
  br label %lean_obj_tag.exit

lean_obj_tag.exit:                                ; preds = %5, %8
  %.0.i = phi i32 [ %7, %5 ], [ %10, %8 ]
  %11 = icmp eq i32 %.0.i, 0
  br i1 %11, label %12, label %14

12:                                               ; preds = %lean_obj_tag.exit
  %13 = tail call ptr @l___private_Lean_HeadIndex_0__Lean_Expr_toHeadIndexSlow(ptr noundef %0)
  br label %lean_dec.exit

14:                                               ; preds = %lean_obj_tag.exit
  %15 = ptrtoint ptr %0 to i64
  %16 = and i64 %15, 1
  %.not = icmp eq i64 %16, 0
  br i1 %.not, label %17, label %lean_dec.exit10

17:                                               ; preds = %14
  %18 = load i32, ptr %0, align 4, !tbaa !9
  %19 = icmp sgt i32 %18, 1
  br i1 %19, label %20, label %22, !prof !12

20:                                               ; preds = %17
  %21 = add nsw i32 %18, -1
  store i32 %21, ptr %0, align 4, !tbaa !9
  br label %lean_dec.exit10

22:                                               ; preds = %17
  %.not.i = icmp eq i32 %18, 0
  br i1 %.not.i, label %lean_dec.exit10, label %23

23:                                               ; preds = %22
  tail call void @lean_dec_ref_cold(ptr noundef nonnull %0) #3
  br label %lean_dec.exit10

lean_dec.exit10:                                  ; preds = %23, %22, %20, %14
  %24 = getelementptr inbounds nuw i8, ptr %2, i64 8
  %25 = load ptr, ptr %24, align 8, !tbaa !4
  %26 = ptrtoint ptr %25 to i64
  %27 = and i64 %26, 1
  %.not16 = icmp eq i64 %27, 0
  br i1 %.not16, label %28, label %lean_inc.exit

28:                                               ; preds = %lean_dec.exit10
  %.val.i14 = load i32, ptr %25, align 4, !tbaa !9
  %29 = icmp sgt i32 %.val.i14, 0
  br i1 %29, label %30, label %32, !prof !12

30:                                               ; preds = %28
  %31 = add nuw i32 %.val.i14, 1
  store i32 %31, ptr %25, align 4, !tbaa !9
  br label %lean_inc.exit

32:                                               ; preds = %28
  %.not.i15 = icmp eq i32 %.val.i14, 0
  br i1 %.not.i15, label %lean_inc.exit, label %33

33:                                               ; preds = %32
  tail call void @lean_inc_ref_cold(ptr noundef nonnull %25) #3
  br label %lean_inc.exit

lean_inc.exit:                                    ; preds = %33, %32, %30, %lean_dec.exit10
  br i1 %.not.i13, label %34, label %lean_dec.exit

34:                                               ; preds = %lean_inc.exit
  %35 = load i32, ptr %2, align 4, !tbaa !9
  %36 = icmp sgt i32 %35, 1
  br i1 %36, label %37, label %39, !prof !12

37:                                               ; preds = %34
  %38 = add nsw i32 %35, -1
  store i32 %38, ptr %2, align 4, !tbaa !9
  br label %lean_dec.exit

39:                                               ; preds = %34
  %.not.i11 = icmp eq i32 %35, 0
  br i1 %.not.i11, label %lean_dec.exit, label %40

40:                                               ; preds = %39
  tail call void @lean_dec_ref_cold(ptr noundef nonnull %2) #3
  br label %lean_dec.exit

lean_dec.exit:                                    ; preds = %lean_inc.exit, %37, %39, %40, %12
  %.0 = phi ptr [ %13, %12 ], [ %25, %40 ], [ %25, %39 ], [ %25, %37 ], [ %25, %lean_inc.exit ]
  ret ptr %.0
}